target datalayout = "e-m:e-p270:32:32-p271:32:32-p272:64:64-i64:64-i128:128-f80:128-n8:16:32:64-S128"
target triple = "x86_64-pc-linux-gnu"

%"class.std::basic_string_view" = type { i64, ptr }
%"class.absl::lts_20240722::Status" = type { i64 }
%"class.absl::lts_20240722::StatusOr.267" = type { %"class.absl::lts_20240722::internal_statusor::StatusOrData.base", [4 x i8] }
%"class.absl::lts_20240722::internal_statusor::StatusOrData.base" = type <{ %union.anon.269, %union.anon.270 }>
%union.anon.269 = type { %"class.absl::lts_20240722::Status" }
%union.anon.270 = type { i32 }
%"class.absl::lts_20240722::internal_statusor::StatusOrData.268" = type <{ %union.anon.269, %union.anon.270, [4 x i8] }>
%class.anon.441 = type { ptr, ptr, ptr }

@.str.43 = private unnamed_addr constant [5 x i8] c"null\00", align 1

; Function Attrs: inlinehint mustprogress nounwind uwtable
define linkonce_odr hidden noundef ptr @_ZN4absl12lts_202407226Status12RepToPointerEm(i64 noundef %0) #7 comdat align 2 {
  %2 = alloca i64, align 8
  store i64 %0, ptr %2, align 8, !tbaa !47
  %3 = load i64, ptr %2, align 8, !tbaa !47
  %4 = inttoptr i64 %3 to ptr
  ret ptr %4
}

; Function Attrs: mustprogress nounwind uwtable
define linkonce_odr hidden noundef zeroext i1 @_ZN4absl12lts_202407226Status9IsInlinedEm(i64 noundef %0) #8 comdat align 2 {
  %2 = alloca i64, align 8
  store i64 %0, ptr %2, align 8, !tbaa !47
  %3 = load i64, ptr %2, align 8, !tbaa !47
  %4 = and i64 %3, 1
  %5 = icmp ne i64 %4, 0
  ret i1 %5
}

; Function Attrs: inlinehint mustprogress uwtable
define linkonce_odr hidden void @_ZN4absl12lts_202407226Status5UnrefEm(i64 noundef %0) #9 comdat align 2 {
  %2 = alloca i64, align 8
  store i64 %0, ptr %2, align 8, !tbaa !47
  %3 = load i64, ptr %2, align 8, !tbaa !47
  %4 = call noundef zeroext i1 @_ZN4absl12lts_202407226Status9IsInlinedEm(i64 noundef %3)
  br i1 %4, label %8, label %5

5:                                                ; preds = %1
  %6 = load i64, ptr %2, align 8, !tbaa !47
  %7 = call noundef ptr @_ZN4absl12lts_202407226Status12RepToPointerEm(i64 noundef %6)
  call void @_ZNK4absl12lts_2024072215status_internal9StatusRep5UnrefEv(ptr noundef nonnull align 8 dereferenceable(48) %7)
  br label %8

8:                                                ; preds = %5, %1
  ret void
}

; Function Attrs: mustprogress nounwind uwtable
define linkonce_odr hidden noundef i64 @_ZN4absl12lts_202407226Status16CodeToInlinedRepENS0_10StatusCodeE(i32 noundef %0) #8 comdat align 2 {
  %2 = alloca i32, align 4
  store i32 %0, ptr %2, align 4, !tbaa !234
  %3 = load i32, ptr %2, align 4, !tbaa !234
  %4 = sext i32 %3 to i64
  %5 = shl i64 %4, 2
  %6 = add i64 %5, 1
  ret i64 %6
}

; Function Attrs: inlinehint mustprogress nounwind uwtable
define linkonce_odr hidden void @_ZN4absl12lts_202407226StatusD2Ev(ptr noundef nonnull align 8 dereferenceable(8) %0) unnamed_addr #7 comdat align 2 personality ptr @__gxx_personality_v0 {
  %2 = alloca ptr, align 8
  store ptr %0, ptr %2, align 8, !tbaa !89
  %3 = load ptr, ptr %2, align 8
  %4 = getelementptr inbounds nuw %"class.absl::lts_20240722::Status", ptr %3, i32 0, i32 0
  %5 = load i64, ptr %4, align 8, !tbaa !91
  invoke void @_ZN4absl12lts_202407226Status5UnrefEm(i64 noundef %5)
          to label %6 unwind label %7

6:                                                ; preds = %1
  ret void

7:                                                ; preds = %1
  %8 = landingpad { ptr, i32 }
          catch ptr null
  %9 = extractvalue { ptr, i32 } %8, 0
  call void @__clang_call_terminate(ptr %9) #30
  unreachable
}

; Function Attrs: mustprogress uwtable
define linkonce_odr hidden noundef zeroext i1 @_ZNK4absl12lts_2024072217internal_statusor12StatusOrDataIN6google8protobuf13json_internal9JsonLexer4KindEE2okEv(ptr noundef nonnull align 8 dereferenceable(12) %0) #4 comdat align 2 {
  %2 = alloca ptr, align 8
  store ptr %0, ptr %2, align 8, !tbaa !801
  %3 = load ptr, ptr %2, align 8
  %4 = getelementptr inbounds nuw %"class.absl::lts_20240722::internal_statusor::StatusOrData.268", ptr %3, i32 0, i32 0
  %5 = call noundef zeroext i1 @_ZNK4absl12lts_202407226Status2okEv(ptr noundef nonnull align 8 dereferenceable(8) %4)
  ret i1 %5
}

; Function Attrs: mustprogress uwtable
define linkonce_odr hidden void @_ZNK4absl12lts_2024072217internal_statusor12StatusOrDataIN6google8protobuf13json_internal9JsonLexer4KindEE8EnsureOkEv(ptr noundef nonnull align 8 dereferenceable(12) %0) #4 comdat align 2 {
  %2 = alloca ptr, align 8
  store ptr %0, ptr %2, align 8, !tbaa !801
  %3 = load ptr, ptr %2, align 8
  %4 = call noundef zeroext i1 @_ZNK4absl12lts_2024072217internal_statusor12StatusOrDataIN6google8protobuf13json_internal9JsonLexer4KindEE2okEv(ptr noundef nonnull align 8 dereferenceable(12) %3)
  %5 = xor i1 %4, true
  %6 = zext i1 %5 to i64
  %7 = call i64 @llvm.expect.i64(i64 %6, i64 0)
  %8 = icmp ne i64 %7, 0
  br i1 %8, label %9, label %11

9:                                                ; preds = %1
  %10 = getelementptr inbounds nuw %"class.absl::lts_20240722::internal_statusor::StatusOrData.268", ptr %3, i32 0, i32 0
  call void @_ZN4absl12lts_2024072217internal_statusor6Helper5CrashERKNS0_6StatusE(ptr noundef nonnull align 8 dereferenceable(8) %10) #31
  unreachable

11:                                               ; preds = %1
  ret void
}

; Function Attrs: inlinehint mustprogress uwtable
define linkonce_odr hidden noundef zeroext i1 @_ZNK4absl12lts_202407226Status2okEv(ptr noundef nonnull align 8 dereferenceable(8) %0) #9 comdat align 2 {
  %2 = alloca ptr, align 8
  store ptr %0, ptr %2, align 8, !tbaa !89
  %3 = load ptr, ptr %2, align 8
  %4 = getelementptr inbounds nuw %"class.absl::lts_20240722::Status", ptr %3, i32 0, i32 0
  %5 = load i64, ptr %4, align 8, !tbaa !91
  %6 = call noundef i64 @_ZN4absl12lts_202407226Status16CodeToInlinedRepENS0_10StatusCodeE(i32 noundef 0)
  %7 = icmp eq i64 %5, %6
  ret i1 %7
}

; Function Attrs: mustprogress nounwind uwtable
define linkonce_odr hidden noundef i64 @_ZNSt11char_traitsIcE6lengthEPKc(ptr noundef %0) #8 comdat align 2 {
  %2 = alloca ptr, align 8
  store ptr %0, ptr %2, align 8, !tbaa !48
  %3 = load ptr, ptr %2, align 8, !tbaa !48
  %4 = call i64 @strlen(ptr noundef %3) #3
  ret i64 %4
}

; Function Attrs: mustprogress nounwind uwtable
define linkonce_odr hidden void @_ZN4absl12lts_2024072217internal_statusor12StatusOrDataIN6google8protobuf13json_internal9JsonLexer4KindEED2Ev(ptr noundef nonnull align 8 dereferenceable(12) %0) unnamed_addr #8 comdat align 2 personality ptr @__gxx_personality_v0 {
  %2 = alloca ptr, align 8
  store ptr %0, ptr %2, align 8, !tbaa !801
  %3 = load ptr, ptr %2, align 8
  %4 = invoke noundef zeroext i1 @_ZNK4absl12lts_2024072217internal_statusor12StatusOrDataIN6google8protobuf13json_internal9JsonLexer4KindEE2okEv(ptr noundef nonnull align 8 dereferenceable(12) %3)
          to label %5 unwind label %11

5:                                                ; preds = %1
  br i1 %4, label %6, label %8

6:                                                ; preds = %5
  %7 = getelementptr inbounds nuw %"class.absl::lts_20240722::internal_statusor::StatusOrData.268", ptr %3, i32 0, i32 0
  call void @_ZN4absl12lts_202407226StatusD2Ev(ptr noundef nonnull align 8 dereferenceable(8) %7) #3
  br label %10

8:                                                ; preds = %5
  %9 = getelementptr inbounds nuw %"class.absl::lts_20240722::internal_statusor::StatusOrData.268", ptr %3, i32 0, i32 0
  call void @_ZN4absl12lts_202407226StatusD2Ev(ptr noundef nonnull align 8 dereferenceable(8) %9) #3
  br label %10

10:                                               ; preds = %8, %6
  ret void

11:                                               ; preds = %1
  %12 = landingpad { ptr, i32 }
          catch ptr null
  %13 = extractvalue { ptr, i32 } %12, 0
  call void @__clang_call_terminate(ptr %13) #30
  unreachable
}

; Function Attrs: mustprogress uwtable
define linkonce_odr hidden noundef nonnull align 4 dereferenceable(4) ptr @_ZNR4absl12lts_202407228StatusOrIN6google8protobuf13json_internal9JsonLexer4KindEEdeEv(ptr noundef nonnull align 8 dereferenceable(12) %0) #4 comdat align 2 {
  %2 = alloca ptr, align 8
  store ptr %0, ptr %2, align 8, !tbaa !795
  %3 = load ptr, ptr %2, align 8
  call void @_ZNK4absl12lts_2024072217internal_statusor12StatusOrDataIN6google8protobuf13json_internal9JsonLexer4KindEE8EnsureOkEv(ptr noundef nonnull align 8 dereferenceable(12) %3)
  %4 = getelementptr inbounds nuw %"class.absl::lts_20240722::internal_statusor::StatusOrData.268", ptr %3, i32 0, i32 1
  ret ptr %4
}

; Function Attrs: mustprogress uwtable
define linkonce_odr hidden noundef zeroext i1 @_ZNK4absl12lts_202407228StatusOrIN6google8protobuf13json_internal9JsonLexer4KindEE2okEv(ptr noundef nonnull align 8 dereferenceable(12) %0) #4 comdat align 2 {
  %2 = alloca ptr, align 8
  store ptr %0, ptr %2, align 8, !tbaa !795
  %3 = load ptr, ptr %2, align 8
  %4 = getelementptr inbounds nuw %"class.absl::lts_20240722::internal_statusor::StatusOrData.268", ptr %3, i32 0, i32 0
  %5 = call noundef zeroext i1 @_ZNK4absl12lts_202407226Status2okEv(ptr noundef nonnull align 8 dereferenceable(8) %4)
  ret i1 %5
}

; Function Attrs: mustprogress nounwind uwtable
define linkonce_odr hidden void @_ZN6google8protobuf13json_internal12JsonLocation14SourceLocation7currentEv() #8 comdat align 2 {
  ret void
}

; Function Attrs: mustprogress nounwind uwtable
define linkonce_odr hidden void @_ZNSt17basic_string_viewIcSt11char_traitsIcEEC2EPKc(ptr noundef nonnull align 8 dereferenceable(16) %0, ptr noundef nonnull %1) unnamed_addr #8 comdat align 2 personality ptr @__gxx_personality_v0 {
  %3 = alloca ptr, align 8
  %4 = alloca ptr, align 8
  store ptr %0, ptr %3, align 8, !tbaa !93
  store ptr %1, ptr %4, align 8, !tbaa !48
  %5 = load ptr, ptr %3, align 8
  %6 = getelementptr inbounds nuw %"class.std::basic_string_view", ptr %5, i32 0, i32 0
  %7 = load ptr, ptr %4, align 8, !tbaa !48
  %8 = invoke noundef i64 @_ZNSt11char_traitsIcE6lengthEPKc(ptr noundef %7)
          to label %9 unwind label %12

9:                                                ; preds = %2
  store i64 %8, ptr %6, align 8, !tbaa !95
  %10 = getelementptr inbounds nuw %"class.std::basic_string_view", ptr %5, i32 0, i32 1
  %11 = load ptr, ptr %4, align 8, !tbaa !48
  store ptr %11, ptr %10, align 8, !tbaa !96
  ret void

12:                                               ; preds = %2
  %13 = landingpad { ptr, i32 }
          catch ptr null
  %14 = extractvalue { ptr, i32 } %13, 0
  call void @__clang_call_terminate(ptr %14) #30
  unreachable
}

; Function Attrs: mustprogress uwtable
define linkonce_odr hidden noundef zeroext i1 @_ZN6google8protobuf13json_internal9JsonLexer4PeekENS2_4KindE(ptr noundef nonnull align 8 dereferenceable(136) %0, i32 noundef %1) #4 comdat align 2 personality ptr @__gxx_personality_v0 {
  %3 = alloca ptr, align 8
  %4 = alloca i32, align 4
  %5 = alloca %"class.absl::lts_20240722::StatusOr.267", align 8
  %6 = alloca ptr, align 8
  %7 = alloca i32, align 4
  store ptr %0, ptr %3, align 8, !tbaa !54
  store i32 %1, ptr %4, align 4, !tbaa !483
  %8 = load ptr, ptr %3, align 8
  call void @llvm.lifetime.start.p0(i64 16, ptr %5) #3
  call void @_ZN6google8protobuf13json_internal9JsonLexer8PeekKindEv(ptr dead_on_unwind writable sret(%"class.absl::lts_20240722::StatusOr.267") align 8 %5, ptr noundef nonnull align 8 dereferenceable(136) %8)
  %9 = invoke noundef zeroext i1 @_ZNK4absl12lts_202407228StatusOrIN6google8protobuf13json_internal9JsonLexer4KindEE2okEv(ptr noundef nonnull align 8 dereferenceable(12) %5)
          to label %10 unwind label %19

10:                                               ; preds = %2
  br i1 %9, label %11, label %17

11:                                               ; preds = %10
  %12 = invoke noundef nonnull align 4 dereferenceable(4) ptr @_ZNR4absl12lts_202407228StatusOrIN6google8protobuf13json_internal9JsonLexer4KindEEdeEv(ptr noundef nonnull align 8 dereferenceable(12) %5)
          to label %13 unwind label %19

13:                                               ; preds = %11
  %14 = load i32, ptr %12, align 4, !tbaa !483
  %15 = load i32, ptr %4, align 4, !tbaa !483
  %16 = icmp eq i32 %14, %15
  br label %17

17:                                               ; preds = %13, %10
  %18 = phi i1 [ false, %10 ], [ %16, %13 ]
  call void @_ZN4absl12lts_2024072217internal_statusor12StatusOrDataIN6google8protobuf13json_internal9JsonLexer4KindEED2Ev(ptr noundef nonnull align 8 dereferenceable(12) %5) #3
  call void @llvm.lifetime.end.p0(i64 16, ptr %5) #3
  ret i1 %18

19:                                               ; preds = %11, %2
  %20 = landingpad { ptr, i32 }
          cleanup
  %21 = extractvalue { ptr, i32 } %20, 0
  store ptr %21, ptr %6, align 8
  %22 = extractvalue { ptr, i32 } %20, 1
  store i32 %22, ptr %7, align 4
  call void @_ZN4absl12lts_2024072217internal_statusor12StatusOrDataIN6google8protobuf13json_internal9JsonLexer4KindEED2Ev(ptr noundef nonnull align 8 dereferenceable(12) %5) #3
  call void @llvm.lifetime.end.p0(i64 16, ptr %5) #3
  br label %23

23:                                               ; preds = %19
  %24 = load ptr, ptr %6, align 8
  %25 = load i32, ptr %7, align 4
  %26 = insertvalue { ptr, i32 } poison, ptr %24, 0
  %27 = insertvalue { ptr, i32 } %26, i32 %25, 1
  resume { ptr, i32 } %27
}

; Function Attrs: mustprogress uwtable
define internal void @_ZN6google8protobuf13json_internal12_GLOBAL__N_110ParseArrayINS1_15ParseProto3TypeEEEN4absl12lts_202407226StatusERNS1_9JsonLexerENT_5FieldERNSA_3MsgE(ptr dead_on_unwind noalias writable sret(%"class.absl::lts_20240722::Status") align 8 %0, ptr noundef nonnull align 8 dereferenceable(136) %1, ptr noundef %2, ptr noundef nonnull align 8 dereferenceable(144) %3) #4 {
  %5 = alloca ptr, align 8
  %6 = alloca ptr, align 8
  %7 = alloca ptr, align 8
  %8 = alloca ptr, align 8
  %9 = alloca %"class.std::basic_string_view", align 8
  %10 = alloca %class.anon.441, align 8
  store ptr %0, ptr %5, align 8
  store ptr %1, ptr %6, align 8, !tbaa !54
  store ptr %2, ptr %7, align 8, !tbaa !367
  store ptr %3, ptr %8, align 8, !tbaa !107
  %11 = load ptr, ptr %6, align 8, !tbaa !54
  %12 = call noundef zeroext i1 @_ZN6google8protobuf13json_internal9JsonLexer4PeekENS2_4KindE(ptr noundef nonnull align 8 dereferenceable(136) %11, i32 noundef 6)
  br i1 %12, label %13, label %19

13:                                               ; preds = %4
  %14 = load ptr, ptr %6, align 8, !tbaa !54
  call void @_ZNSt17basic_string_viewIcSt11char_traitsIcEEC2EPKc(ptr noundef nonnull align 8 dereferenceable(16) %9, ptr noundef @.str.43) #3
  call void @_ZN6google8protobuf13json_internal12JsonLocation14SourceLocation7currentEv()
  %15 = getelementptr inbounds nuw { i64, ptr }, ptr %9, i32 0, i32 0
  %16 = load i64, ptr %15, align 8
  %17 = getelementptr inbounds nuw { i64, ptr }, ptr %9, i32 0, i32 1
  %18 = load ptr, ptr %17, align 8
  call void @_ZN6google8protobuf13json_internal9JsonLexer6ExpectESt17basic_string_viewIcSt11char_traitsIcEENS1_12JsonLocation14SourceLocationE(ptr dead_on_unwind writable sret(%"class.absl::lts_20240722::Status") align 8 %0, ptr noundef nonnull align 8 dereferenceable(136) %14, i64 %16, ptr %18)
  br label %26

19:                                               ; preds = %4
  %20 = load ptr, ptr %6, align 8, !tbaa !54
  %21 = getelementptr inbounds nuw %class.anon.441, ptr %10, i32 0, i32 0
  %22 = load ptr, ptr %6, align 8, !tbaa !54
  store ptr %22, ptr %21, align 8, !tbaa !54
  %23 = getelementptr inbounds nuw %class.anon.441, ptr %10, i32 0, i32 1
  store ptr %7, ptr %23, align 8, !tbaa !365
  %24 = getelementptr inbounds nuw %class.anon.441, ptr %10, i32 0, i32 2
  %25 = load ptr, ptr %8, align 8, !tbaa !107
  store ptr %25, ptr %24, align 8, !tbaa !107
  call void @_ZN6google8protobuf13json_internal9JsonLexer10VisitArrayIZNS1_12_GLOBAL__N_110ParseArrayINS1_15ParseProto3TypeEEEN4absl12lts_202407226StatusERS2_NT_5FieldERNSB_3MsgEEUlvE_EES9_SB_(ptr dead_on_unwind writable sret(%"class.absl::lts_20240722::Status") align 8 %0, ptr noundef nonnull align 8 dereferenceable(136) %20, ptr noundef byval(%class.anon.441) align 8 %10)
  br label %26

26:                                               ; preds = %19, %13
  ret void
}