; Function Attrs: mustprogress uwtable
define internal fastcc void @_ZN6google8protobuf13json_internal12_GLOBAL__N_110ParseArrayINS1_15ParseProto3TypeEEEN4absl12lts_202407226StatusERNS1_9JsonLexerENT_5FieldERNSA_3MsgE(ptr dead_on_unwind noalias nonnull writable align 8 %0, ptr noundef nonnull align 8 dereferenceable(136) %1, ptr noundef %2, ptr noundef nonnull align 8 dereferenceable(144) %3) unnamed_addr #3 personality ptr @__gxx_personality_v0 {
  %5 = alloca %"class.absl::lts_20240722::StatusOr.267", align 8
  %6 = alloca ptr, align 8
  %7 = alloca %class.anon.441, align 8
  store ptr %2, ptr %6, align 8, !tbaa !322
  call void @llvm.lifetime.start.p0(i64 16, ptr nonnull %5) #30
  call void @_ZN6google8protobuf13json_internal9JsonLexer8PeekKindEv(ptr dead_on_unwind nonnull writable sret(%"class.absl::lts_20240722::StatusOr.267") align 8 %5, ptr noundef nonnull align 8 dereferenceable(136) %1)
  %8 = load i64, ptr %5, align 8, !tbaa !60
  %9 = icmp eq i64 %8, 1
  br i1 %9, label %_ZN6google8protobuf13json_internal9JsonLexer4PeekENS2_4KindE.exit, label %10

10:                                               ; preds = %4
  %11 = and i64 %8, 1
  %.not.i.i.i.i = icmp eq i64 %11, 0
  br i1 %.not.i.i.i.i, label %12, label %_ZN6google8protobuf13json_internal9JsonLexer4PeekENS2_4KindE.exit.thread

12:                                               ; preds = %10
  %13 = inttoptr i64 %8 to ptr
  invoke void @_ZNK4absl12lts_2024072215status_internal9StatusRep5UnrefEv(ptr noundef nonnull align 8 dereferenceable(48) %13)
          to label %_ZN6google8protobuf13json_internal9JsonLexer4PeekENS2_4KindE.exit.thread unwind label %14

14:                                               ; preds = %12
  %15 = landingpad { ptr, i32 }
          catch ptr null
  %16 = extractvalue { ptr, i32 } %15, 0
  call void @__clang_call_terminate(ptr %16) #32
  unreachable

_ZN6google8protobuf13json_internal9JsonLexer4PeekENS2_4KindE.exit.thread: ; preds = %10, %12
  call void @llvm.lifetime.end.p0(i64 16, ptr nonnull %5) #30
  br label %21

_ZN6google8protobuf13json_internal9JsonLexer4PeekENS2_4KindE.exit: ; preds = %4
  %17 = getelementptr inbounds nuw i8, ptr %5, i64 8
  %18 = load i32, ptr %17, align 8, !tbaa !132
  %19 = icmp eq i32 %18, 6
  call void @llvm.lifetime.end.p0(i64 16, ptr nonnull %5) #30
  br i1 %19, label %20, label %21

20:                                               ; preds = %_ZN6google8protobuf13json_internal9JsonLexer4PeekENS2_4KindE.exit
  call void @_ZN6google8protobuf13json_internal9JsonLexer6ExpectESt17basic_string_viewIcSt11char_traitsIcEENS1_12JsonLocation14SourceLocationE(ptr dead_on_unwind nonnull writable sret(%"class.absl::lts_20240722::Status") align 8 %0, ptr noundef nonnull align 8 dereferenceable(136) %1, i64 4, ptr nonnull @.str.43)
  br label %24

21:                                               ; preds = %_ZN6google8protobuf13json_internal9JsonLexer4PeekENS2_4KindE.exit.thread, %_ZN6google8protobuf13json_internal9JsonLexer4PeekENS2_4KindE.exit
  store ptr %1, ptr %7, align 8, !tbaa !345
  %22 = getelementptr inbounds nuw i8, ptr %7, i64 8
  store ptr %6, ptr %22, align 8, !tbaa !788
  %23 = getelementptr inbounds nuw i8, ptr %7, i64 16
  store ptr %3, ptr %23, align 8, !tbaa !790
  call fastcc void @_ZN6google8protobuf13json_internal9JsonLexer10VisitArrayIZNS1_12_GLOBAL__N_110ParseArrayINS1_15ParseProto3TypeEEEN4absl12lts_202407226StatusERS2_NT_5FieldERNSB_3MsgEEUlvE_EES9_SB_(ptr dead_on_unwind noalias writable align 8 %0, ptr noundef nonnull align 8 dereferenceable(136) %1, ptr noundef nonnull byval(%class.anon.441) align 8 %7)
  br label %24

24:                                               ; preds = %21, %20
  ret void
}